target datalayout = "e-m:e-p270:32:32-p271:32:32-p272:64:64-i64:64-i128:128-f80:128-n8:16:32:64-S128"
target triple = "x86_64-pc-linux-gnu"

%struct._php_core_globals = type { i64, i8, i8, i8, i8, i8, i8, i8, i8, ptr, ptr, i64, i64, i64, ptr, ptr, ptr, ptr, ptr, i8, ptr, ptr, ptr, ptr, i64, ptr, ptr, ptr, ptr, ptr, ptr, ptr, %struct._arg_separators, ptr, %struct._zend_array, i16, i8, i8, %struct._zend_llist, [6 x %struct._zval_struct], i8, i8, i8, i8, i8, ptr, ptr, i64, [8 x i8], i8, i8, i8, i8, i8, i8, i32, i32, ptr, ptr, ptr, ptr, i64, i64, ptr, i64, ptr, ptr, i8, i8, i8, i8, i8, i8, i64, ptr, i64, i64 }
%struct._arg_separators = type { ptr, ptr }
%struct._zend_array = type { %struct._zend_refcounted_h, %union.anon.0, i32, %union.anon.1, i32, i32, i32, i32, i64, ptr }
%struct._zend_refcounted_h = type { i32, %union.anon }
%union.anon = type { i32 }
%union.anon.0 = type { i32 }
%union.anon.1 = type { ptr }
%struct._zend_llist = type { ptr, ptr, i64, i64, ptr, i8, ptr }
%struct._zval_struct = type { %union._zend_value, %union.anon.3, %union.anon.6 }
%union._zend_value = type { i64 }
%union.anon.3 = type { i32 }
%union.anon.6 = type { i32 }

@core_globals = external global %struct._php_core_globals, align 8
@.str.1 = private unnamed_addr constant [83 x i8] c"File name is longer than the maximum allowed path length on this platform (%d): %s\00", align 1
@.str.2 = private unnamed_addr constant [85 x i8] c"open_basedir restriction in effect. File(%s) is not within the allowed path(s): (%s)\00", align 1

; Function Attrs: nounwind uwtable
define i32 @php_check_open_basedir_ex(ptr noundef %0, i32 noundef %1) #0 {
  %3 = alloca i32, align 4
  %4 = alloca ptr, align 8
  %5 = alloca i32, align 4
  %6 = alloca ptr, align 8
  %7 = alloca ptr, align 8
  %8 = alloca ptr, align 8
  store ptr %0, ptr %4, align 8
  store i32 %1, ptr %5, align 4
  %9 = load ptr, ptr getelementptr inbounds (%struct._php_core_globals, ptr @core_globals, i32 0, i32 18), align 8
  %10 = icmp ne ptr %9, null
  br i1 %10, label %11, label %64

11:                                               ; preds = %2
  %12 = load ptr, ptr getelementptr inbounds (%struct._php_core_globals, ptr @core_globals, i32 0, i32 18), align 8
  %13 = load i8, ptr %12, align 1
  %14 = sext i8 %13 to i32
  %15 = icmp ne i32 %14, 0
  br i1 %15, label %16, label %64

16:                                               ; preds = %11
  %17 = load ptr, ptr %4, align 8
  %18 = call i64 @strlen(ptr noundef %17) #11
  %19 = icmp ugt i64 %18, 4095
  br i1 %19, label %20, label %23

20:                                               ; preds = %16
  %21 = load ptr, ptr %4, align 8
  call void (ptr, i32, ptr, ...) @php_error_docref(ptr noundef null, i32 noundef 2, ptr noundef @.str.1, i32 noundef 4096, ptr noundef %21)
  %22 = call ptr @__errno_location() #15
  store i32 22, ptr %22, align 4
  store i32 -1, ptr %3, align 4
  br label %65

23:                                               ; preds = %16
  %24 = load ptr, ptr getelementptr inbounds (%struct._php_core_globals, ptr @core_globals, i32 0, i32 18), align 8
  %25 = call noalias ptr @_estrdup(ptr noundef %24)
  store ptr %25, ptr %6, align 8
  %26 = load ptr, ptr %6, align 8
  store ptr %26, ptr %7, align 8
  br label %27

27:                                               ; preds = %53, %23
  %28 = load ptr, ptr %7, align 8
  %29 = icmp ne ptr %28, null
  br i1 %29, label %30, label %35

30:                                               ; preds = %27
  %31 = load ptr, ptr %7, align 8
  %32 = load i8, ptr %31, align 1
  %33 = sext i8 %32 to i32
  %34 = icmp ne i32 %33, 0
  br label %35

35:                                               ; preds = %30, %27
  %36 = phi i1 [ false, %27 ], [ %34, %30 ]
  br i1 %36, label %37, label %55

37:                                               ; preds = %35
  %38 = load ptr, ptr %7, align 8
  %39 = call ptr @strchr(ptr noundef %38, i32 noundef 58) #11
  store ptr %39, ptr %8, align 8
  %40 = load ptr, ptr %8, align 8
  %41 = icmp ne ptr %40, null
  br i1 %41, label %42, label %46

42:                                               ; preds = %37
  %43 = load ptr, ptr %8, align 8
  store i8 0, ptr %43, align 1
  %44 = load ptr, ptr %8, align 8
  %45 = getelementptr inbounds i8, ptr %44, i32 1
  store ptr %45, ptr %8, align 8
  br label %46

46:                                               ; preds = %42, %37
  %47 = load ptr, ptr %7, align 8
  %48 = load ptr, ptr %4, align 8
  %49 = call i32 @php_check_specific_open_basedir(ptr noundef %47, ptr noundef %48)
  %50 = icmp eq i32 %49, 0
  br i1 %50, label %51, label %53

51:                                               ; preds = %46
  %52 = load ptr, ptr %6, align 8
  call void @_efree(ptr noundef %52)
  store i32 0, ptr %3, align 4
  br label %65

53:                                               ; preds = %46
  %54 = load ptr, ptr %8, align 8
  store ptr %54, ptr %7, align 8
  br label %27

55:                                               ; preds = %35
  %56 = load i32, ptr %5, align 4
  %57 = icmp ne i32 %56, 0
  br i1 %57, label %58, label %61

58:                                               ; preds = %55
  %59 = load ptr, ptr %4, align 8
  %60 = load ptr, ptr getelementptr inbounds (%struct._php_core_globals, ptr @core_globals, i32 0, i32 18), align 8
  call void (ptr, i32, ptr, ...) @php_error_docref(ptr noundef null, i32 noundef 2, ptr noundef @.str.2, ptr noundef %59, ptr noundef %60)
  br label %61

61:                                               ; preds = %58, %55
  %62 = load ptr, ptr %6, align 8
  call void @_efree(ptr noundef %62)
  %63 = call ptr @__errno_location() #15
  store i32 1, ptr %63, align 4
  store i32 -1, ptr %3, align 4
  br label %65

64:                                               ; preds = %11, %2
  store i32 0, ptr %3, align 4
  br label %65

65:                                               ; preds = %64, %61, %51, %20
  %66 = load i32, ptr %3, align 4
  ret i32 %66
}