; Function Attrs: nounwind uwtable
define noundef i32 @php_check_open_basedir_ex(ptr noundef %0, i32 noundef %1) local_unnamed_addr #0 {
  %3 = load ptr, ptr getelementptr inbounds (%struct._php_core_globals, ptr @core_globals, i64 0, i32 18), align 8
  %.not = icmp eq ptr %3, null
  br i1 %.not, label %28, label %4

4:                                                ; preds = %2
  %5 = load i8, ptr %3, align 1
  %.not20 = icmp eq i8 %5, 0
  br i1 %.not20, label %28, label %6

6:                                                ; preds = %4
  %7 = tail call i64 @strlen(ptr noundef nonnull dereferenceable(1) %0) #17
  %8 = icmp ugt i64 %7, 4095
  br i1 %8, label %9, label %11

9:                                                ; preds = %6
  tail call void (ptr, i32, ptr, ...) @php_error_docref(ptr noundef null, i32 noundef 2, ptr noundef nonnull @.str.1, i32 noundef 4096, ptr noundef %0) #16
  %10 = tail call ptr @__errno_location() #20
  store i32 22, ptr %10, align 4
  br label %28

11:                                               ; preds = %6
  %12 = tail call noalias ptr @_estrdup(ptr noundef nonnull %3) #16
  br label %13

13:                                               ; preds = %20, %11
  %.016 = phi ptr [ %12, %11 ], [ %.0, %20 ]
  %.not21 = icmp eq ptr %.016, null
  br i1 %.not21, label %.critedge, label %14

14:                                               ; preds = %13
  %15 = load i8, ptr %.016, align 1
  %.not22 = icmp eq i8 %15, 0
  br i1 %.not22, label %.critedge, label %16

16:                                               ; preds = %14
  %17 = tail call ptr @strchr(ptr noundef nonnull dereferenceable(1) %.016, i32 noundef 58) #17
  %.not24 = icmp eq ptr %17, null
  br i1 %.not24, label %20, label %18

18:                                               ; preds = %16
  store i8 0, ptr %17, align 1
  %19 = getelementptr inbounds i8, ptr %17, i64 1
  br label %20

20:                                               ; preds = %18, %16
  %.0 = phi ptr [ %19, %18 ], [ null, %16 ]
  %21 = tail call i32 @php_check_specific_open_basedir(ptr noundef nonnull %.016, ptr noundef %0), !range !4
  %22 = icmp eq i32 %21, 0
  br i1 %22, label %23, label %13

23:                                               ; preds = %20
  tail call void @_efree(ptr noundef %12) #16
  br label %28

.critedge:                                        ; preds = %13, %14
  %.not23 = icmp eq i32 %1, 0
  br i1 %.not23, label %26, label %24

24:                                               ; preds = %.critedge
  %25 = load ptr, ptr getelementptr inbounds (%struct._php_core_globals, ptr @core_globals, i64 0, i32 18), align 8
  tail call void (ptr, i32, ptr, ...) @php_error_docref(ptr noundef null, i32 noundef 2, ptr noundef nonnull @.str.2, ptr noundef %0, ptr noundef %25) #16
  br label %26

26:                                               ; preds = %24, %.critedge
  tail call void @_efree(ptr noundef %12) #16
  %27 = tail call ptr @__errno_location() #20
  store i32 1, ptr %27, align 4
  br label %28

28:                                               ; preds = %2, %4, %26, %23, %9
  %.017 = phi i32 [ -1, %9 ], [ 0, %23 ], [ -1, %26 ], [ 0, %4 ], [ 0, %2 ]
  ret i32 %.017
}